; Function Attrs: mustprogress nounwind uwtable
define hidden void @_ZNK16DefNewGeneration8print_onEP12outputStream(ptr noundef nonnull align 8 dereferenceable(744) %0, ptr noundef %1) unnamed_addr #0 align 2 {
  tail call void @_ZNK10Generation8print_onEP12outputStream(ptr noundef nonnull align 8 dereferenceable(152) %0, ptr noundef %1) #19
  tail call void (ptr, ptr, ...) @_ZN12outputStream5printEPKcz(ptr noundef nonnull align 8 dereferenceable(56) %1, ptr noundef nonnull @.str.13) #19
  %3 = getelementptr inbounds i8, ptr %0, i64 672
  %4 = load ptr, ptr %3, align 8
  tail call void @_ZNK15ContiguousSpace8print_onEP12outputStream(ptr noundef nonnull align 8 dereferenceable(24) %4, ptr noundef nonnull %1) #19
  tail call void (ptr, ptr, ...) @_ZN12outputStream5printEPKcz(ptr noundef nonnull align 8 dereferenceable(56) %1, ptr noundef nonnull @.str.14) #19
  %5 = getelementptr inbounds i8, ptr %0, i64 680
  %6 = load ptr, ptr %5, align 8
  tail call void @_ZNK15ContiguousSpace8print_onEP12outputStream(ptr noundef nonnull align 8 dereferenceable(24) %6, ptr noundef nonnull %1) #19
  tail call void (ptr, ptr, ...) @_ZN12outputStream5printEPKcz(ptr noundef nonnull align 8 dereferenceable(56) %1, ptr noundef nonnull @.str.15) #19
  %7 = getelementptr inbounds i8, ptr %0, i64 688
  %8 = load ptr, ptr %7, align 8
  tail call void @_ZNK15ContiguousSpace8print_onEP12outputStream(ptr noundef nonnull align 8 dereferenceable(24) %8, ptr noundef nonnull %1) #19
  ret void
}